; Function Attrs: nounwind uwtable
define void @dt_ctl_switch_mode_to_by_view(ptr noundef %0) local_unnamed_addr #0 {
  %2 = load ptr, ptr getelementptr inbounds nuw (i8, ptr @darktable, i64 80), align 8, !tbaa !6
  %3 = tail call ptr @dt_view_manager_get_current_view(ptr noundef %2) #13
  %4 = icmp eq ptr %0, %3
  br i1 %4, label %6, label %5

5:                                                ; preds = %1
  tail call void @g_main_context_invoke(ptr noundef null, ptr noundef nonnull @_dt_ctl_switch_mode_to_by_view, ptr noundef %0) #13
  br label %6

6:                                                ; preds = %1, %5
  ret void
}